target datalayout = "e-m:e-p270:32:32-p271:32:32-p272:64:64-i64:64-i128:128-f80:128-n8:16:32:64-S128"
target triple = "x86_64-unknown-linux-gnu"

%struct.QTailQLink = type { ptr, ptr }
%struct.GraphLockableMainloop = type {}
%struct.BDRVReopenState = type { ptr, i32, i32, i8, ptr, ptr, ptr, ptr, ptr }
%struct.BlockDriverState = type { i32, i8, i8, i8, i8, i8, ptr, ptr, ptr, %struct.anon.0, i8, [4096 x i8], [4096 x i8], [4096 x i8], [16 x i8], ptr, [4096 x i8], %struct.BlockLimits, i32, i32, i32, i32, [32 x i8], %union.anon.1, %union.anon.2, %union.anon.3, i32, [16 x %struct.anon.4], ptr, %struct.anon.5, ptr, ptr, %struct.anon.6, ptr, ptr, i32, ptr, i64, i64, %struct.QemuMutex, %struct.anon.7, %struct.Stat64, i32, i32, i32, i32, i32, i32, %struct.QemuMutex, %struct.anon.8, %struct.CoQueue, i8, i32, i8, %struct.CoMutex, ptr, ptr }
%struct.anon.0 = type { ptr }
%struct.BlockLimits = type { i32, i64, i32, i64, i32, i32, i32, i64, i32, i64, i64, i32, i8, i32, i32, i32, i32, i32, i32, i32 }
%union.anon.1 = type { %struct.QTailQLink }
%union.anon.2 = type { %struct.QTailQLink }
%union.anon.3 = type { %struct.QTailQLink }
%struct.anon.4 = type { ptr }
%struct.anon.5 = type { ptr }
%struct.anon.6 = type { ptr }
%struct.anon.7 = type { ptr }
%struct.Stat64 = type { i64 }
%struct.QemuMutex = type { %union.pthread_mutex_t, i8 }
%union.pthread_mutex_t = type { %struct.__pthread_mutex_s }
%struct.__pthread_mutex_s = type { i32, i32, i32, i32, i32, i16, i16, %struct.__pthread_internal_list }
%struct.__pthread_internal_list = type { ptr, ptr }
%struct.anon.8 = type { ptr }
%struct.CoQueue = type { %struct.anon.9 }
%struct.anon.9 = type { ptr, ptr }
%struct.CoMutex = type { i32, ptr, %struct.anon.10, %struct.anon.10, i32, i32, ptr }
%struct.anon.10 = type { ptr }
%struct.BDRVVmdkState = type { %struct.CoMutex, i64, i8, i8, i32, i32, i32, ptr, ptr, ptr }
%struct.BDRVVmdkReopenState = type { ptr }
%struct.VmdkExtent = type { ptr, i8, i8, i8, i8, i8, i64, i64, i32, i32, i64, i64, i64, i64, i64, ptr, ptr, i32, i32, i32, ptr, [16 x i32], [16 x i32], i64, i64, ptr }

@.str.23 = private unnamed_addr constant [22 x i8] c"qemu_in_main_thread()\00", align 1
@.str.24 = private unnamed_addr constant [21 x i8] c"../qemu/block/vmdk.c\00", align 1
@__PRETTY_FUNCTION__.vmdk_reopen_commit = private unnamed_addr constant [43 x i8] c"void vmdk_reopen_commit(BDRVReopenState *)\00", align 1

; Function Attrs: nounwind sspstrong uwtable
define internal void @graph_lockable_auto_unlock_mainloop(ptr noundef %x) #0 {
entry:
  %x.addr = alloca ptr, align 8
  store ptr %x, ptr %x.addr, align 8
  call void @bdrv_graph_rdunlock_main_loop()
  ret void
}

; Function Attrs: nounwind sspstrong uwtable
define internal void @glib_autoptr_clear_GraphLockableMainloop(ptr noundef %_ptr) #0 {
entry:
  %_ptr.addr = alloca ptr, align 8
  store ptr %_ptr, ptr %_ptr.addr, align 8
  %0 = load ptr, ptr %_ptr.addr, align 8
  %tobool = icmp ne ptr %0, null
  br i1 %tobool, label %if.then, label %if.end

if.then:                                          ; preds = %entry
  %1 = load ptr, ptr %_ptr.addr, align 8
  call void @graph_lockable_auto_unlock_mainloop(ptr noundef %1)
  br label %if.end

if.end:                                           ; preds = %if.then, %entry
  ret void
}

; Function Attrs: nounwind sspstrong uwtable
define internal void @glib_autoptr_cleanup_GraphLockableMainloop(ptr noundef %_ptr) #0 {
entry:
  %_ptr.addr = alloca ptr, align 8
  store ptr %_ptr, ptr %_ptr.addr, align 8
  %0 = load ptr, ptr %_ptr.addr, align 8
  %1 = load ptr, ptr %0, align 8
  call void @glib_autoptr_clear_GraphLockableMainloop(ptr noundef %1)
  ret void
}

; Function Attrs: nounwind sspstrong uwtable
define internal void @vmdk_reopen_clean(ptr noundef %state) #0 {
entry:
  %state.addr = alloca ptr, align 8
  %rs = alloca ptr, align 8
  store ptr %state, ptr %state.addr, align 8
  %0 = load ptr, ptr %state.addr, align 8
  %opaque = getelementptr inbounds %struct.BDRVReopenState, ptr %0, i32 0, i32 8
  %1 = load ptr, ptr %opaque, align 8
  store ptr %1, ptr %rs, align 8
  %2 = load ptr, ptr %rs, align 8
  %extents_using_bs_file = getelementptr inbounds %struct.BDRVVmdkReopenState, ptr %2, i32 0, i32 0
  %3 = load ptr, ptr %extents_using_bs_file, align 8
  call void @g_free(ptr noundef %3)
  %4 = load ptr, ptr %rs, align 8
  call void @g_free(ptr noundef %4)
  %5 = load ptr, ptr %state.addr, align 8
  %opaque1 = getelementptr inbounds %struct.BDRVReopenState, ptr %5, i32 0, i32 8
  store ptr null, ptr %opaque1, align 8
  ret void
}

; Function Attrs: nounwind sspstrong uwtable
define internal ptr @graph_lockable_auto_lock_mainloop(ptr noundef %x) #0 {
entry:
  %x.addr = alloca ptr, align 8
  store ptr %x, ptr %x.addr, align 8
  call void @bdrv_graph_rdlock_main_loop()
  %0 = load ptr, ptr %x.addr, align 8
  ret ptr %0
}

; Function Attrs: nounwind sspstrong uwtable
define internal void @vmdk_reopen_commit(ptr noundef %state) #0 {
entry:
  %state.addr = alloca ptr, align 8
  %s = alloca ptr, align 8
  %rs = alloca ptr, align 8
  %i = alloca i32, align 4
  %graph_lockable_auto5 = alloca ptr, align 8
  %.compoundliteral = alloca %struct.GraphLockableMainloop, align 1
  store ptr %state, ptr %state.addr, align 8
  %0 = load ptr, ptr %state.addr, align 8
  %bs = getelementptr inbounds %struct.BDRVReopenState, ptr %0, i32 0, i32 0
  %1 = load ptr, ptr %bs, align 8
  %opaque = getelementptr inbounds %struct.BlockDriverState, ptr %1, i32 0, i32 7
  %2 = load ptr, ptr %opaque, align 8
  store ptr %2, ptr %s, align 8
  %3 = load ptr, ptr %state.addr, align 8
  %opaque1 = getelementptr inbounds %struct.BDRVReopenState, ptr %3, i32 0, i32 8
  %4 = load ptr, ptr %opaque1, align 8
  store ptr %4, ptr %rs, align 8
  br label %do.body

do.body:                                          ; preds = %entry
  %call = call zeroext i1 @qemu_in_main_thread()
  br i1 %call, label %if.then, label %if.else

if.then:                                          ; preds = %do.body
  br label %if.end

if.else:                                          ; preds = %do.body
  call void @__assert_fail(ptr noundef @.str.23, ptr noundef @.str.24, i32 noundef 470, ptr noundef @__PRETTY_FUNCTION__.vmdk_reopen_commit) #10
  unreachable

if.end:                                           ; preds = %if.then
  br label %do.end

do.end:                                           ; preds = %if.end
  %call2 = call ptr @graph_lockable_auto_lock_mainloop(ptr noundef %.compoundliteral)
  store ptr %call2, ptr %graph_lockable_auto5, align 8
  store i32 0, ptr %i, align 4
  br label %for.cond

for.cond:                                         ; preds = %for.inc, %do.end
  %5 = load i32, ptr %i, align 4
  %6 = load ptr, ptr %s, align 8
  %num_extents = getelementptr inbounds %struct.BDRVVmdkState, ptr %6, i32 0, i32 6
  %7 = load i32, ptr %num_extents, align 4
  %cmp = icmp slt i32 %5, %7
  br i1 %cmp, label %for.body, label %for.end

for.body:                                         ; preds = %for.cond
  %8 = load ptr, ptr %rs, align 8
  %extents_using_bs_file = getelementptr inbounds %struct.BDRVVmdkReopenState, ptr %8, i32 0, i32 0
  %9 = load ptr, ptr %extents_using_bs_file, align 8
  %10 = load i32, ptr %i, align 4
  %idxprom = sext i32 %10 to i64
  %arrayidx = getelementptr i8, ptr %9, i64 %idxprom
  %11 = load i8, ptr %arrayidx, align 1
  %tobool = trunc i8 %11 to i1
  br i1 %tobool, label %if.then3, label %if.end8

if.then3:                                         ; preds = %for.body
  %12 = load ptr, ptr %state.addr, align 8
  %bs4 = getelementptr inbounds %struct.BDRVReopenState, ptr %12, i32 0, i32 0
  %13 = load ptr, ptr %bs4, align 8
  %file = getelementptr inbounds %struct.BlockDriverState, ptr %13, i32 0, i32 31
  %14 = load ptr, ptr %file, align 8
  %15 = load ptr, ptr %s, align 8
  %extents = getelementptr inbounds %struct.BDRVVmdkState, ptr %15, i32 0, i32 7
  %16 = load ptr, ptr %extents, align 8
  %17 = load i32, ptr %i, align 4
  %idxprom5 = sext i32 %17 to i64
  %arrayidx6 = getelementptr %struct.VmdkExtent, ptr %16, i64 %idxprom5
  %file7 = getelementptr inbounds %struct.VmdkExtent, ptr %arrayidx6, i32 0, i32 0
  store ptr %14, ptr %file7, align 8
  br label %if.end8

if.end8:                                          ; preds = %if.then3, %for.body
  br label %for.inc

for.inc:                                          ; preds = %if.end8
  %18 = load i32, ptr %i, align 4
  %inc = add i32 %18, 1
  store i32 %inc, ptr %i, align 4
  br label %for.cond, !llvm.loop !7

for.end:                                          ; preds = %for.cond
  %19 = load ptr, ptr %state.addr, align 8
  call void @vmdk_reopen_clean(ptr noundef %19)
  call void @glib_autoptr_cleanup_GraphLockableMainloop(ptr noundef %graph_lockable_auto5)
  ret void
}