; Function Attrs: nounwind sspstrong uwtable
define internal void @vmdk_reopen_commit(ptr noundef captures(none) %state) #0 {
entry:
  %0 = load ptr, ptr %state, align 8
  %opaque = getelementptr inbounds nuw i8, ptr %0, i64 24
  %1 = load ptr, ptr %opaque, align 8
  %opaque1 = getelementptr inbounds nuw i8, ptr %state, i64 56
  %2 = load ptr, ptr %opaque1, align 8
  %call = tail call zeroext i1 @qemu_in_main_thread() #15
  br i1 %call, label %do.end, label %if.else

if.else:                                          ; preds = %entry
  tail call void @__assert_fail(ptr noundef nonnull @.str.23, ptr noundef nonnull @.str.24, i32 noundef 470, ptr noundef nonnull @__PRETTY_FUNCTION__.vmdk_reopen_commit) #16
  unreachable

do.end:                                           ; preds = %entry
  tail call void @bdrv_graph_rdlock_main_loop() #15
  %num_extents = getelementptr inbounds nuw i8, ptr %1, i64 68
  %3 = load i32, ptr %num_extents, align 4
  %cmp8 = icmp sgt i32 %3, 0
  br i1 %cmp8, label %for.body.lr.ph, label %glib_autoptr_cleanup_GraphLockableMainloop.exit

for.body.lr.ph:                                   ; preds = %do.end
  %extents = getelementptr inbounds nuw i8, ptr %1, i64 72
  br label %for.body

for.body:                                         ; preds = %for.body.lr.ph, %for.inc
  %4 = phi i32 [ %3, %for.body.lr.ph ], [ %10, %for.inc ]
  %indvars.iv = phi i64 [ 0, %for.body.lr.ph ], [ %indvars.iv.next, %for.inc ]
  %5 = load ptr, ptr %2, align 8
  %arrayidx = getelementptr i8, ptr %5, i64 %indvars.iv
  %6 = load i8, ptr %arrayidx, align 1
  %tobool = trunc i8 %6 to i1
  br i1 %tobool, label %if.then3, label %for.inc

if.then3:                                         ; preds = %for.body
  %7 = load ptr, ptr %state, align 8
  %file = getelementptr inbounds nuw i8, ptr %7, i64 16840
  %8 = load ptr, ptr %file, align 8
  %9 = load ptr, ptr %extents, align 8
  %arrayidx6 = getelementptr %struct.VmdkExtent, ptr %9, i64 %indvars.iv
  store ptr %8, ptr %arrayidx6, align 8
  %.pre = load i32, ptr %num_extents, align 4
  br label %for.inc

for.inc:                                          ; preds = %for.body, %if.then3
  %10 = phi i32 [ %4, %for.body ], [ %.pre, %if.then3 ]
  %indvars.iv.next = add nuw nsw i64 %indvars.iv, 1
  %11 = sext i32 %10 to i64
  %cmp = icmp slt i64 %indvars.iv.next, %11
  br i1 %cmp, label %for.body, label %glib_autoptr_cleanup_GraphLockableMainloop.exit, !llvm.loop !7

glib_autoptr_cleanup_GraphLockableMainloop.exit:  ; preds = %for.inc, %do.end
  %12 = load ptr, ptr %opaque1, align 8
  %13 = load ptr, ptr %12, align 8
  tail call void @g_free(ptr noundef %13) #15
  tail call void @g_free(ptr noundef nonnull %12) #15
  store ptr null, ptr %opaque1, align 8
  tail call void @bdrv_graph_rdunlock_main_loop() #15
  ret void
}